target datalayout = "e-m:e-p270:32:32-p271:32:32-p272:64:64-i64:64-i128:128-f80:128-n8:16:32:64-S128"
target triple = "x86_64-pc-linux-gnu"

%struct._longobject = type { %struct.PyVarObject, [1 x i32] }
%struct.PyVarObject = type { %struct._object, i64 }
%struct._object = type { i64, ptr }
%struct._typeobject = type { %struct.PyVarObject, ptr, i64, i64, ptr, i64, ptr, ptr, ptr, ptr, ptr, ptr, ptr, ptr, ptr, ptr, ptr, ptr, ptr, i64, ptr, ptr, ptr, ptr, i64, ptr, ptr, ptr, ptr, ptr, ptr, ptr, ptr, ptr, i64, ptr, ptr, ptr, ptr, ptr, ptr, ptr, ptr, ptr, ptr, ptr, i32, ptr, ptr }

@PyFloat_Type = external global %struct._typeobject, align 8
@PyLong_Type = external global %struct._typeobject, align 8

; Function Attrs: inlinehint mustprogress nounwind uwtable
define linkonce_odr noundef i64 @_ZSt3absl(i64 noundef %0) #9 comdat {
  %2 = alloca i64, align 8
  store i64 %0, ptr %2, align 8
  %3 = load i64, ptr %2, align 8
  %4 = call i64 @llvm.abs.i64(i64 %3, i1 true)
  ret i64 %4
}

; Function Attrs: inlinehint mustprogress uwtable
define internal void @_ZL10_Py_DECREFP7_object(ptr noundef %0) #13 {
  %2 = alloca ptr, align 8
  store ptr %0, ptr %2, align 8
  %3 = load ptr, ptr %2, align 8
  %4 = getelementptr inbounds nuw %struct._object, ptr %3, i32 0, i32 0
  %5 = load i64, ptr %4, align 8
  %6 = add nsw i64 %5, -1
  store i64 %6, ptr %4, align 8
  %7 = icmp ne i64 %6, 0
  br i1 %7, label %8, label %9

8:                                                ; preds = %1
  br label %11

9:                                                ; preds = %1
  %10 = load ptr, ptr %2, align 8
  call void @_Py_Dealloc(ptr noundef %10)
  br label %11

11:                                               ; preds = %9, %8
  ret void
}

; Function Attrs: alwaysinline mustprogress nounwind uwtable
define linkonce_odr hidden noundef zeroext i1 @_ZN8nanobind6detail8load_intImLb0EEEbP7_objectjPT_(ptr noundef %0, i32 noundef %1, ptr noundef %2) #18 comdat personality ptr @__gxx_personality_v0 {
  %4 = alloca i1, align 1
  %5 = alloca ptr, align 8
  %6 = alloca i32, align 4
  %7 = alloca ptr, align 8
  %8 = alloca ptr, align 8
  %9 = alloca i64, align 8
  %10 = alloca i64, align 8
  %11 = alloca i32, align 4
  %12 = alloca i64, align 8
  %13 = alloca i64, align 8
  store ptr %0, ptr %5, align 8
  store i32 %1, ptr %6, align 4
  store ptr %2, ptr %7, align 8
  %14 = load ptr, ptr %5, align 8
  %15 = call noundef i32 @_ZL11_Py_IS_TYPEPK7_objectPK11_typeobject(ptr noundef %14, ptr noundef @PyLong_Type)
  %16 = icmp ne i32 %15, 0
  %17 = zext i1 %16 to i64
  %18 = call i64 @llvm.expect.i64(i64 %17, i64 1)
  %19 = icmp ne i64 %18, 0
  br i1 %19, label %20, label %63

20:                                               ; preds = %3
  call void @llvm.lifetime.start.p0(i64 8, ptr %8) #20
  %21 = load ptr, ptr %5, align 8
  store ptr %21, ptr %8, align 8
  %22 = load ptr, ptr %8, align 8
  %23 = invoke noundef zeroext i1 @_ZN8nanobind6detail25PyUnstable_Long_IsCompactEPK11_longobject(ptr noundef %22)
          to label %24 unwind label %66

24:                                               ; preds = %20
  %25 = zext i1 %23 to i64
  %26 = call i64 @llvm.expect.i64(i64 %25, i64 1)
  %27 = icmp ne i64 %26, 0
  br i1 %27, label %28, label %45

28:                                               ; preds = %24
  call void @llvm.lifetime.start.p0(i64 8, ptr %9) #20
  %29 = load ptr, ptr %8, align 8
  %30 = call noundef i64 @_ZN8nanobind6detail28PyUnstable_Long_CompactValueEPK11_longobject(ptr noundef %29)
  store i64 %30, ptr %9, align 8
  call void @llvm.lifetime.start.p0(i64 8, ptr %10) #20
  %31 = load i64, ptr %9, align 8
  store i64 %31, ptr %10, align 8
  %32 = load i64, ptr %9, align 8
  %33 = icmp slt i64 %32, 0
  br i1 %33, label %35, label %34

34:                                               ; preds = %28
  br label %35

35:                                               ; preds = %34, %28
  %36 = phi i1 [ true, %28 ], [ false, %34 ]
  %37 = zext i1 %36 to i64
  %38 = call i64 @llvm.expect.i64(i64 %37, i64 0)
  %39 = icmp ne i64 %38, 0
  br i1 %39, label %40, label %41

40:                                               ; preds = %35
  store i1 false, ptr %4, align 1
  store i32 1, ptr %11, align 4
  br label %44

41:                                               ; preds = %35
  %42 = load i64, ptr %10, align 8
  %43 = load ptr, ptr %7, align 8
  store i64 %42, ptr %43, align 8
  store i1 true, ptr %4, align 1
  store i32 1, ptr %11, align 4
  br label %44

44:                                               ; preds = %41, %40
  call void @llvm.lifetime.end.p0(i64 8, ptr %10) #20
  call void @llvm.lifetime.end.p0(i64 8, ptr %9) #20
  br label %62

45:                                               ; preds = %24
  call void @llvm.lifetime.start.p0(i64 8, ptr %12) #20
  %46 = load ptr, ptr %5, align 8
  %47 = invoke i64 @PyLong_AsUnsignedLong(ptr noundef %46)
          to label %48 unwind label %66

48:                                               ; preds = %45
  store i64 %47, ptr %12, align 8
  %49 = load i64, ptr %12, align 8
  %50 = icmp eq i64 %49, -1
  br i1 %50, label %51, label %57

51:                                               ; preds = %48
  %52 = invoke ptr @PyErr_Occurred()
          to label %53 unwind label %66

53:                                               ; preds = %51
  %54 = icmp ne ptr %52, null
  br i1 %54, label %55, label %57

55:                                               ; preds = %53
  invoke void @PyErr_Clear()
          to label %56 unwind label %66

56:                                               ; preds = %55
  store i1 false, ptr %4, align 1
  store i32 1, ptr %11, align 4
  br label %61

57:                                               ; preds = %53, %48
  call void @llvm.lifetime.start.p0(i64 8, ptr %13) #20
  %58 = load i64, ptr %12, align 8
  store i64 %58, ptr %13, align 8
  %59 = load i64, ptr %13, align 8
  %60 = load ptr, ptr %7, align 8
  store i64 %59, ptr %60, align 8
  store i1 true, ptr %4, align 1
  store i32 1, ptr %11, align 4
  call void @llvm.lifetime.end.p0(i64 8, ptr %13) #20
  br label %61

61:                                               ; preds = %57, %56
  call void @llvm.lifetime.end.p0(i64 8, ptr %12) #20
  br label %62

62:                                               ; preds = %61, %44
  call void @llvm.lifetime.end.p0(i64 8, ptr %8) #20
  br label %64

63:                                               ; preds = %3
  store i1 false, ptr %4, align 1
  br label %64

64:                                               ; preds = %63, %62
  %65 = load i1, ptr %4, align 1
  ret i1 %65

66:                                               ; preds = %55, %51, %45, %20
  %67 = landingpad { ptr, i32 }
          catch ptr null
  %68 = extractvalue { ptr, i32 } %67, 0
  call void @__clang_call_terminate(ptr %68) #22
  unreachable
}

; Function Attrs: inlinehint mustprogress uwtable
define internal noundef i32 @_ZL19_PyObject_TypeCheckP7_objectP11_typeobject(ptr noundef %0, ptr noundef %1) #13 {
  %3 = alloca ptr, align 8
  %4 = alloca ptr, align 8
  store ptr %0, ptr %3, align 8
  store ptr %1, ptr %4, align 8
  %5 = load ptr, ptr %3, align 8
  %6 = load ptr, ptr %4, align 8
  %7 = call noundef i32 @_ZL11_Py_IS_TYPEPK7_objectPK11_typeobject(ptr noundef %5, ptr noundef %6)
  %8 = icmp ne i32 %7, 0
  br i1 %8, label %16, label %9

9:                                                ; preds = %2
  %10 = load ptr, ptr %3, align 8
  %11 = getelementptr inbounds nuw %struct._object, ptr %10, i32 0, i32 1
  %12 = load ptr, ptr %11, align 8
  %13 = load ptr, ptr %4, align 8
  %14 = call i32 @PyType_IsSubtype(ptr noundef %12, ptr noundef %13)
  %15 = icmp ne i32 %14, 0
  br label %16

16:                                               ; preds = %9, %2
  %17 = phi i1 [ true, %2 ], [ %15, %9 ]
  %18 = zext i1 %17 to i32
  ret i32 %18
}

; Function Attrs: alwaysinline mustprogress nounwind uwtable
define linkonce_odr hidden noundef i64 @_ZN8nanobind6detail28PyUnstable_Long_CompactValueEPK11_longobject(ptr noundef %0) #18 comdat {
  %2 = alloca ptr, align 8
  store ptr %0, ptr %2, align 8
  %3 = load ptr, ptr %2, align 8
  %4 = getelementptr inbounds nuw %struct.PyVarObject, ptr %3, i32 0, i32 1
  %5 = load i64, ptr %4, align 8
  %6 = load ptr, ptr %2, align 8
  %7 = getelementptr inbounds nuw %struct._longobject, ptr %6, i32 0, i32 1
  %8 = getelementptr inbounds [1 x i32], ptr %7, i64 0, i64 0
  %9 = load i32, ptr %8, align 8
  %10 = zext i32 %9 to i64
  %11 = mul nsw i64 %5, %10
  ret i64 %11
}

; Function Attrs: alwaysinline mustprogress uwtable
define linkonce_odr hidden noundef zeroext i1 @_ZN8nanobind6detail25PyUnstable_Long_IsCompactEPK11_longobject(ptr noundef %0) #17 comdat {
  %2 = alloca ptr, align 8
  store ptr %0, ptr %2, align 8
  %3 = load ptr, ptr %2, align 8
  %4 = getelementptr inbounds nuw %struct.PyVarObject, ptr %3, i32 0, i32 1
  %5 = load i64, ptr %4, align 8
  %6 = call noundef i64 @_ZSt3absl(i64 noundef %5)
  %7 = icmp sle i64 %6, 1
  ret i1 %7
}

; Function Attrs: inlinehint mustprogress nounwind uwtable
define internal noundef i32 @_ZL11_Py_IS_TYPEPK7_objectPK11_typeobject(ptr noundef %0, ptr noundef %1) #9 {
  %3 = alloca ptr, align 8
  %4 = alloca ptr, align 8
  store ptr %0, ptr %3, align 8
  store ptr %1, ptr %4, align 8
  %5 = load ptr, ptr %3, align 8
  %6 = getelementptr inbounds nuw %struct._object, ptr %5, i32 0, i32 1
  %7 = load ptr, ptr %6, align 8
  %8 = load ptr, ptr %4, align 8
  %9 = icmp eq ptr %7, %8
  %10 = zext i1 %9 to i32
  ret i32 %10
}

; Function Attrs: alwaysinline mustprogress nounwind uwtable
define linkonce_odr hidden noundef zeroext i1 @_ZN8nanobind6detail8load_intImLb1EEEbP7_objectjPT_(ptr noundef %0, i32 noundef %1, ptr noundef %2) #18 comdat personality ptr @__gxx_personality_v0 {
  %4 = alloca i1, align 1
  %5 = alloca ptr, align 8
  %6 = alloca i32, align 4
  %7 = alloca ptr, align 8
  %8 = alloca ptr, align 8
  %9 = alloca i64, align 8
  %10 = alloca i64, align 8
  %11 = alloca i32, align 4
  %12 = alloca i64, align 8
  %13 = alloca i64, align 8
  %14 = alloca ptr, align 8
  %15 = alloca i8, align 1
  store ptr %0, ptr %5, align 8
  store i32 %1, ptr %6, align 4
  store ptr %2, ptr %7, align 8
  %16 = load ptr, ptr %5, align 8
  %17 = call noundef i32 @_ZL11_Py_IS_TYPEPK7_objectPK11_typeobject(ptr noundef %16, ptr noundef @PyLong_Type)
  %18 = icmp ne i32 %17, 0
  %19 = zext i1 %18 to i64
  %20 = call i64 @llvm.expect.i64(i64 %19, i64 1)
  %21 = icmp ne i64 %20, 0
  br i1 %21, label %22, label %65

22:                                               ; preds = %3
  call void @llvm.lifetime.start.p0(i64 8, ptr %8) #20
  %23 = load ptr, ptr %5, align 8
  store ptr %23, ptr %8, align 8
  %24 = load ptr, ptr %8, align 8
  %25 = invoke noundef zeroext i1 @_ZN8nanobind6detail25PyUnstable_Long_IsCompactEPK11_longobject(ptr noundef %24)
          to label %26 unwind label %98

26:                                               ; preds = %22
  %27 = zext i1 %25 to i64
  %28 = call i64 @llvm.expect.i64(i64 %27, i64 1)
  %29 = icmp ne i64 %28, 0
  br i1 %29, label %30, label %47

30:                                               ; preds = %26
  call void @llvm.lifetime.start.p0(i64 8, ptr %9) #20
  %31 = load ptr, ptr %8, align 8
  %32 = call noundef i64 @_ZN8nanobind6detail28PyUnstable_Long_CompactValueEPK11_longobject(ptr noundef %31)
  store i64 %32, ptr %9, align 8
  call void @llvm.lifetime.start.p0(i64 8, ptr %10) #20
  %33 = load i64, ptr %9, align 8
  store i64 %33, ptr %10, align 8
  %34 = load i64, ptr %9, align 8
  %35 = icmp slt i64 %34, 0
  br i1 %35, label %37, label %36

36:                                               ; preds = %30
  br label %37

37:                                               ; preds = %36, %30
  %38 = phi i1 [ true, %30 ], [ false, %36 ]
  %39 = zext i1 %38 to i64
  %40 = call i64 @llvm.expect.i64(i64 %39, i64 0)
  %41 = icmp ne i64 %40, 0
  br i1 %41, label %42, label %43

42:                                               ; preds = %37
  store i1 false, ptr %4, align 1
  store i32 1, ptr %11, align 4
  br label %46

43:                                               ; preds = %37
  %44 = load i64, ptr %10, align 8
  %45 = load ptr, ptr %7, align 8
  store i64 %44, ptr %45, align 8
  store i1 true, ptr %4, align 1
  store i32 1, ptr %11, align 4
  br label %46

46:                                               ; preds = %43, %42
  call void @llvm.lifetime.end.p0(i64 8, ptr %10) #20
  call void @llvm.lifetime.end.p0(i64 8, ptr %9) #20
  br label %64

47:                                               ; preds = %26
  call void @llvm.lifetime.start.p0(i64 8, ptr %12) #20
  %48 = load ptr, ptr %5, align 8
  %49 = invoke i64 @PyLong_AsUnsignedLong(ptr noundef %48)
          to label %50 unwind label %98

50:                                               ; preds = %47
  store i64 %49, ptr %12, align 8
  %51 = load i64, ptr %12, align 8
  %52 = icmp eq i64 %51, -1
  br i1 %52, label %53, label %59

53:                                               ; preds = %50
  %54 = invoke ptr @PyErr_Occurred()
          to label %55 unwind label %98

55:                                               ; preds = %53
  %56 = icmp ne ptr %54, null
  br i1 %56, label %57, label %59

57:                                               ; preds = %55
  invoke void @PyErr_Clear()
          to label %58 unwind label %98

58:                                               ; preds = %57
  store i1 false, ptr %4, align 1
  store i32 1, ptr %11, align 4
  br label %63

59:                                               ; preds = %55, %50
  call void @llvm.lifetime.start.p0(i64 8, ptr %13) #20
  %60 = load i64, ptr %12, align 8
  store i64 %60, ptr %13, align 8
  %61 = load i64, ptr %13, align 8
  %62 = load ptr, ptr %7, align 8
  store i64 %61, ptr %62, align 8
  store i1 true, ptr %4, align 1
  store i32 1, ptr %11, align 4
  call void @llvm.lifetime.end.p0(i64 8, ptr %13) #20
  br label %63

63:                                               ; preds = %59, %58
  call void @llvm.lifetime.end.p0(i64 8, ptr %12) #20
  br label %64

64:                                               ; preds = %63, %46
  call void @llvm.lifetime.end.p0(i64 8, ptr %8) #20
  br label %96

65:                                               ; preds = %3
  %66 = load i32, ptr %6, align 4
  %67 = and i32 %66, 1
  %68 = icmp ne i32 %67, 0
  br i1 %68, label %69, label %95

69:                                               ; preds = %65
  %70 = load ptr, ptr %5, align 8
  %71 = invoke noundef i32 @_ZL19_PyObject_TypeCheckP7_objectP11_typeobject(ptr noundef %70, ptr noundef @PyFloat_Type)
          to label %72 unwind label %98

72:                                               ; preds = %69
  %73 = icmp ne i32 %71, 0
  br i1 %73, label %95, label %74

74:                                               ; preds = %72
  call void @llvm.lifetime.start.p0(i64 8, ptr %14) #20
  %75 = load ptr, ptr %5, align 8
  %76 = invoke ptr @PyNumber_Long(ptr noundef %75)
          to label %77 unwind label %98

77:                                               ; preds = %74
  store ptr %76, ptr %14, align 8
  %78 = load ptr, ptr %14, align 8
  %79 = icmp ne ptr %78, null
  br i1 %79, label %80, label %89

80:                                               ; preds = %77
  call void @llvm.lifetime.start.p0(i64 1, ptr %15) #20
  %81 = load ptr, ptr %14, align 8
  %82 = load ptr, ptr %7, align 8
  %83 = call noundef zeroext i1 @_ZN8nanobind6detail8load_intImLb0EEEbP7_objectjPT_(ptr noundef %81, i32 noundef 0, ptr noundef %82) #20
  %84 = zext i1 %83 to i8
  store i8 %84, ptr %15, align 1
  %85 = load ptr, ptr %14, align 8
  invoke void @_ZL10_Py_DECREFP7_object(ptr noundef %85)
          to label %86 unwind label %98

86:                                               ; preds = %80
  %87 = load i8, ptr %15, align 1, !range !6, !noundef !7
  %88 = trunc i8 %87 to i1
  store i1 %88, ptr %4, align 1
  store i32 1, ptr %11, align 4
  call void @llvm.lifetime.end.p0(i64 1, ptr %15) #20
  br label %92

89:                                               ; preds = %77
  invoke void @PyErr_Clear()
          to label %90 unwind label %98

90:                                               ; preds = %89
  br label %91

91:                                               ; preds = %90
  store i32 0, ptr %11, align 4
  br label %92

92:                                               ; preds = %91, %86
  call void @llvm.lifetime.end.p0(i64 8, ptr %14) #20
  %93 = load i32, ptr %11, align 4
  switch i32 %93, label %101 [
    i32 0, label %94
    i32 1, label %96
  ]

94:                                               ; preds = %92
  br label %95

95:                                               ; preds = %94, %72, %65
  store i1 false, ptr %4, align 1
  br label %96

96:                                               ; preds = %95, %92, %64
  %97 = load i1, ptr %4, align 1
  ret i1 %97

98:                                               ; preds = %89, %80, %74, %69, %57, %53, %47, %22
  %99 = landingpad { ptr, i32 }
          catch ptr null
  %100 = extractvalue { ptr, i32 } %99, 0
  call void @__clang_call_terminate(ptr %100) #22
  unreachable

101:                                              ; preds = %92
  unreachable
}

; Function Attrs: mustprogress nounwind uwtable
define noundef zeroext i1 @_ZN8nanobind6detail8load_u64EP7_objecthPm(ptr noundef %0, i8 noundef zeroext %1, ptr noundef %2) #4 {
  %4 = alloca ptr, align 8
  %5 = alloca i8, align 1
  %6 = alloca ptr, align 8
  store ptr %0, ptr %4, align 8
  store i8 %1, ptr %5, align 1
  store ptr %2, ptr %6, align 8
  %7 = load ptr, ptr %4, align 8
  %8 = load i8, ptr %5, align 1
  %9 = zext i8 %8 to i32
  %10 = load ptr, ptr %6, align 8
  %11 = call noundef zeroext i1 @_ZN8nanobind6detail8load_intImLb1EEEbP7_objectjPT_(ptr noundef %7, i32 noundef %9, ptr noundef %10) #20
  ret i1 %11
}