; Function Attrs: mustprogress nounwind uwtable
define noundef zeroext i1 @_ZN8nanobind6detail8load_u64EP7_objecthPm(ptr noundef %0, i8 noundef zeroext %1, ptr noundef writeonly captures(none) %2) local_unnamed_addr #9 personality ptr @__gxx_personality_v0 {
  %4 = getelementptr i8, ptr %0, i64 8
  %.val4 = load ptr, ptr %4, align 8
  %.not = icmp eq ptr %.val4, @PyLong_Type
  br i1 %.not, label %5, label %23, !prof !4

5:                                                ; preds = %3
  %6 = getelementptr inbounds nuw i8, ptr %0, i64 16
  %7 = load i64, ptr %6, align 8
  %8 = tail call noundef i64 @llvm.abs.i64(i64 %7, i1 true)
  %9 = icmp samesign ult i64 %8, 2
  br i1 %9, label %10, label %16, !prof !4

10:                                               ; preds = %5
  %11 = getelementptr inbounds nuw i8, ptr %0, i64 24
  %12 = load i32, ptr %11, align 8
  %13 = zext i32 %12 to i64
  %14 = mul nsw i64 %7, %13
  %15 = icmp sgt i64 %14, -1
  br i1 %15, label %_ZN8nanobind6detail8load_intImLb1EEEbP7_objectjPT_.exit.sink.split, label %_ZN8nanobind6detail8load_intImLb1EEEbP7_objectjPT_.exit, !prof !4

16:                                               ; preds = %5
  %17 = invoke i64 @PyLong_AsUnsignedLong(ptr noundef nonnull %0)
          to label %18 unwind label %57

18:                                               ; preds = %16
  %19 = icmp eq i64 %17, -1
  br i1 %19, label %20, label %_ZN8nanobind6detail8load_intImLb1EEEbP7_objectjPT_.exit.sink.split

20:                                               ; preds = %18
  %21 = invoke ptr @PyErr_Occurred()
          to label %22 unwind label %57

22:                                               ; preds = %20
  %.not28.i = icmp eq ptr %21, null
  br i1 %.not28.i, label %_ZN8nanobind6detail8load_intImLb1EEEbP7_objectjPT_.exit.sink.split, label %.invoke

23:                                               ; preds = %3
  %24 = and i8 %1, 1
  %.not25.i = icmp eq i8 %24, 0
  %.not.i6 = icmp eq ptr %.val4, @PyFloat_Type
  %or.cond = or i1 %.not25.i, %.not.i6
  br i1 %or.cond, label %_ZN8nanobind6detail8load_intImLb1EEEbP7_objectjPT_.exit, label %25

25:                                               ; preds = %23
  %26 = invoke i32 @PyType_IsSubtype(ptr noundef %.val4, ptr noundef nonnull @PyFloat_Type)
          to label %_ZL19_PyObject_TypeCheckP7_objectP11_typeobject.exit unwind label %57

_ZL19_PyObject_TypeCheckP7_objectP11_typeobject.exit: ; preds = %25
  %.not12 = icmp eq i32 %26, 0
  br i1 %.not12, label %27, label %_ZN8nanobind6detail8load_intImLb1EEEbP7_objectjPT_.exit

27:                                               ; preds = %_ZL19_PyObject_TypeCheckP7_objectP11_typeobject.exit
  %28 = invoke ptr @PyNumber_Long(ptr noundef nonnull %0)
          to label %29 unwind label %57

29:                                               ; preds = %27
  %.not27.i.not = icmp eq ptr %28, null
  br i1 %.not27.i.not, label %.invoke, label %30

30:                                               ; preds = %29
  %31 = getelementptr i8, ptr %28, i64 8
  %.val = load ptr, ptr %31, align 8
  %.not13 = icmp eq ptr %.val, @PyLong_Type
  br i1 %.not13, label %32, label %_ZN8nanobind6detail8load_intImLb0EEEbP7_objectjPT_.exit, !prof !4

32:                                               ; preds = %30
  %33 = getelementptr inbounds nuw i8, ptr %28, i64 16
  %34 = load i64, ptr %33, align 8
  %35 = tail call noundef i64 @llvm.abs.i64(i64 %34, i1 true)
  %36 = icmp samesign ult i64 %35, 2
  br i1 %36, label %37, label %43, !prof !4

37:                                               ; preds = %32
  %38 = getelementptr inbounds nuw i8, ptr %28, i64 24
  %39 = load i32, ptr %38, align 8
  %40 = zext i32 %39 to i64
  %41 = mul nsw i64 %34, %40
  %42 = icmp sgt i64 %41, -1
  br i1 %42, label %_ZN8nanobind6detail8load_intImLb0EEEbP7_objectjPT_.exit.sink.split, label %_ZN8nanobind6detail8load_intImLb0EEEbP7_objectjPT_.exit, !prof !4

43:                                               ; preds = %32
  %44 = invoke i64 @PyLong_AsUnsignedLong(ptr noundef nonnull %28)
          to label %45 unwind label %51

45:                                               ; preds = %43
  %46 = icmp eq i64 %44, -1
  br i1 %46, label %47, label %_ZN8nanobind6detail8load_intImLb0EEEbP7_objectjPT_.exit.sink.split

47:                                               ; preds = %45
  %48 = invoke ptr @PyErr_Occurred()
          to label %49 unwind label %51

49:                                               ; preds = %47
  %.not14.i = icmp eq ptr %48, null
  br i1 %.not14.i, label %_ZN8nanobind6detail8load_intImLb0EEEbP7_objectjPT_.exit.sink.split, label %50

50:                                               ; preds = %49
  invoke void @PyErr_Clear()
          to label %_ZN8nanobind6detail8load_intImLb0EEEbP7_objectjPT_.exit unwind label %51

51:                                               ; preds = %50, %47, %43
  %52 = landingpad { ptr, i32 }
          catch ptr null
  %53 = extractvalue { ptr, i32 } %52, 0
  tail call void @__clang_call_terminate(ptr %53) #29
  unreachable

_ZN8nanobind6detail8load_intImLb0EEEbP7_objectjPT_.exit.sink.split: ; preds = %45, %49, %37
  %.sink = phi i64 [ %41, %37 ], [ %44, %49 ], [ %44, %45 ]
  store i64 %.sink, ptr %2, align 8
  br label %_ZN8nanobind6detail8load_intImLb0EEEbP7_objectjPT_.exit

_ZN8nanobind6detail8load_intImLb0EEEbP7_objectjPT_.exit: ; preds = %_ZN8nanobind6detail8load_intImLb0EEEbP7_objectjPT_.exit.sink.split, %30, %37, %50
  %.3.i3 = phi i1 [ false, %37 ], [ false, %50 ], [ false, %30 ], [ true, %_ZN8nanobind6detail8load_intImLb0EEEbP7_objectjPT_.exit.sink.split ]
  %54 = load i64, ptr %28, align 8
  %55 = add nsw i64 %54, -1
  store i64 %55, ptr %28, align 8
  %.not.i7 = icmp eq i64 %55, 0
  br i1 %.not.i7, label %56, label %_ZN8nanobind6detail8load_intImLb1EEEbP7_objectjPT_.exit

56:                                               ; preds = %_ZN8nanobind6detail8load_intImLb0EEEbP7_objectjPT_.exit
  invoke void @_Py_Dealloc(ptr noundef nonnull %28)
          to label %_ZN8nanobind6detail8load_intImLb1EEEbP7_objectjPT_.exit unwind label %57

.invoke:                                          ; preds = %29, %22
  invoke void @PyErr_Clear()
          to label %_ZN8nanobind6detail8load_intImLb1EEEbP7_objectjPT_.exit unwind label %57

57:                                               ; preds = %.invoke, %56, %25, %27, %20, %16
  %58 = landingpad { ptr, i32 }
          catch ptr null
  %59 = extractvalue { ptr, i32 } %58, 0
  tail call void @__clang_call_terminate(ptr %59) #29
  unreachable

_ZN8nanobind6detail8load_intImLb1EEEbP7_objectjPT_.exit.sink.split: ; preds = %18, %22, %10
  %.sink14 = phi i64 [ %14, %10 ], [ %17, %22 ], [ %17, %18 ]
  store i64 %.sink14, ptr %2, align 8
  br label %_ZN8nanobind6detail8load_intImLb1EEEbP7_objectjPT_.exit

_ZN8nanobind6detail8load_intImLb1EEEbP7_objectjPT_.exit: ; preds = %_ZN8nanobind6detail8load_intImLb1EEEbP7_objectjPT_.exit.sink.split, %.invoke, %56, %_ZN8nanobind6detail8load_intImLb0EEEbP7_objectjPT_.exit, %23, %_ZL19_PyObject_TypeCheckP7_objectP11_typeobject.exit, %10
  %.3.i = phi i1 [ false, %10 ], [ false, %_ZL19_PyObject_TypeCheckP7_objectP11_typeobject.exit ], [ false, %23 ], [ %.3.i3, %_ZN8nanobind6detail8load_intImLb0EEEbP7_objectjPT_.exit ], [ %.3.i3, %56 ], [ false, %.invoke ], [ true, %_ZN8nanobind6detail8load_intImLb1EEEbP7_objectjPT_.exit.sink.split ]
  ret i1 %.3.i
}